
Allocating common symbols
Common symbol       size              file

pwd_dentry          0x4               kernel/vfs/vfs_init.o
sched               0x8               kernel/pc/pc.o
MBR                 0x4               kernel/vfs/vfs_init.o
interrupts          0x20              arch/mips32/intr.o
tasks               0x8               kernel/pc/pc.o
kernel_start_pfn    0x4               kernel/mm/mybuddy.o
dir_data_buf        0x820             kernel/fs/fat/fat.o
cursor_col          0x4               kernel/driver/vga.o
root_dentry         0x4               kernel/vfs/vfs_init.o
cursor_location     0x4               usr/myvi.o
bootmmmap           0x8000            kernel/mm/mybootmm.o
fat_info            0x418             kernel/fs/fat/fat.o
file_create         0x4150            kernel/fs/fat/usr.o
pidmap              0x20              arch/mips32/intr.o
root_mnt            0x4               kernel/vfs/vfs_init.o
is_new_file         0x4               usr/myvi.o
syscalls            0x400             kernel/syscall/syscall.o
bmm                 0x90              kernel/mm/mybootmm.o
cursor_row          0x4               kernel/driver/vga.o
page_end            0x4               usr/myvi.o
filename            0x4               usr/myvi.o
ps_buffer_index     0x4               usr/ps.o
pwd_mnt             0x4               kernel/vfs/vfs_init.o
file                0x4150            usr/exec.o
dcache              0x4               kernel/vfs/vfscache.o
sched_back          0x20              kernel/pc/pc.o
firstusercode_start
                    0x4               kernel/mm/mybootmm.o
filename11          0xd               kernel/fs/fat/fat.o
mode                0x4               usr/myvi.o
pcache              0x4               kernel/vfs/vfscache.o
wait                0x8               kernel/pc/pc.o
buffer              0x1000            usr/myvi.o
mk_dir_buf          0x20              kernel/fs/fat/usr.o
exited              0x8               kernel/pc/pc.o
err                 0x4               usr/myvi.o
new_alloc_empty     0x1000            kernel/fs/fat/fat.o
next_pid            0x4               arch/mips32/intr.o
pre_cursor_freq     0x4               usr/myvi.o
lk                  0xc               usr/ps.o
exceptions          0x80              arch/mips32/exc.o
kernel_end_pfn      0x4               kernel/mm/mybuddy.o
buddy               0x54              kernel/mm/mybuddy.o
firstusercode_len   0x4               kernel/mm/mybootmm.o
dir_find            0x4150            kernel/fs/fat/dir.o
fat_buf             0x410             kernel/fs/fat/fat.o
sched_time_cnt      0x10              kernel/pc/pc.o
icache              0x4               kernel/vfs/vfscache.o
pages               0x4               kernel/mm/mybuddy.o
kmalloc_caches      0x150             kernel/mm/myslab.o
ps_buffer           0x40              usr/ps.o

Discarded input sections

 .reginfo       0x0000000000000000       0x18 arch/mips32/start.o
 .reginfo       0x0000000000000000       0x18 arch/mips32/arch.o
 .MIPS.abiflags
                0x0000000000000000       0x18 arch/mips32/arch.o
 .reginfo       0x0000000000000000       0x18 arch/mips32/page.o
 .MIPS.abiflags
                0x0000000000000000       0x18 arch/mips32/page.o
 .reginfo       0x0000000000000000       0x18 arch/mips32/intr.o
 .MIPS.abiflags
                0x0000000000000000       0x18 arch/mips32/intr.o
 .reginfo       0x0000000000000000       0x18 arch/mips32/exc.o
 .MIPS.abiflags
                0x0000000000000000       0x18 arch/mips32/exc.o
 .reginfo       0x0000000000000000       0x18 kernel/time/time.o
 .MIPS.abiflags
                0x0000000000000000       0x18 kernel/time/time.o
 .reginfo       0x0000000000000000       0x18 kernel/syscall/syscall.o
 .MIPS.abiflags
                0x0000000000000000       0x18 kernel/syscall/syscall.o
 .reginfo       0x0000000000000000       0x18 kernel/syscall/syscall4.o
 .MIPS.abiflags
                0x0000000000000000       0x18 kernel/syscall/syscall4.o
 .reginfo       0x0000000000000000       0x18 kernel/driver/ps2.o
 .MIPS.abiflags
                0x0000000000000000       0x18 kernel/driver/ps2.o
 .reginfo       0x0000000000000000       0x18 kernel/driver/vga.o
 .MIPS.abiflags
                0x0000000000000000       0x18 kernel/driver/vga.o
 .reginfo       0x0000000000000000       0x18 kernel/driver/sd.o
 .MIPS.abiflags
                0x0000000000000000       0x18 kernel/driver/sd.o
 .reginfo       0x0000000000000000       0x18 kernel/vm/vm.o
 .MIPS.abiflags
                0x0000000000000000       0x18 kernel/vm/vm.o
 .reginfo       0x0000000000000000       0x18 kernel/vm/tlb.o
 .MIPS.abiflags
                0x0000000000000000       0x18 kernel/vm/tlb.o
 .reginfo       0x0000000000000000       0x18 kernel/fs/ext2/ext2.o
 .MIPS.abiflags
                0x0000000000000000       0x18 kernel/fs/ext2/ext2.o
 .reginfo       0x0000000000000000       0x18 kernel/fs/ext2/usr.o
 .MIPS.abiflags
                0x0000000000000000       0x18 kernel/fs/ext2/usr.o
 .reginfo       0x0000000000000000       0x18 kernel/fs/debug.o
 .MIPS.abiflags
                0x0000000000000000       0x18 kernel/fs/debug.o
 .reginfo       0x0000000000000000       0x18 kernel/fs/ext2_utils.o
 .MIPS.abiflags
                0x0000000000000000       0x18 kernel/fs/ext2_utils.o
 .reginfo       0x0000000000000000       0x18 kernel/fs/fat/dir.o
 .MIPS.abiflags
                0x0000000000000000       0x18 kernel/fs/fat/dir.o
 .reginfo       0x0000000000000000       0x18 kernel/fs/fat/fat.o
 .MIPS.abiflags
                0x0000000000000000       0x18 kernel/fs/fat/fat.o
 .reginfo       0x0000000000000000       0x18 kernel/fs/fat/usr.o
 .MIPS.abiflags
                0x0000000000000000       0x18 kernel/fs/fat/usr.o
 .reginfo       0x0000000000000000       0x18 kernel/fs/fat_utils.o
 .MIPS.abiflags
                0x0000000000000000       0x18 kernel/fs/fat_utils.o
 .reginfo       0x0000000000000000       0x18 kernel/fs/utils.o
 .MIPS.abiflags
                0x0000000000000000       0x18 kernel/fs/utils.o
 .reginfo       0x0000000000000000       0x18 kernel/fs/fscache/fscache.o
 .MIPS.abiflags
                0x0000000000000000       0x18 kernel/fs/fscache/fscache.o
 .reginfo       0x0000000000000000       0x18 kernel/pc/page.o
 .MIPS.abiflags
                0x0000000000000000       0x18 kernel/pc/page.o
 .reginfo       0x0000000000000000       0x18 kernel/pc/switch_ex.o
 .MIPS.abiflags
                0x0000000000000000       0x18 kernel/pc/switch_ex.o
 .reginfo       0x0000000000000000       0x18 kernel/pc/enter_user_pc.o
 .MIPS.abiflags
                0x0000000000000000       0x18 kernel/pc/enter_user_pc.o
 .reginfo       0x0000000000000000       0x18 kernel/pc/pc.o
 .MIPS.abiflags
                0x0000000000000000       0x18 kernel/pc/pc.o
 .reginfo       0x0000000000000000       0x18 kernel/pc/pid.o
 .MIPS.abiflags
                0x0000000000000000       0x18 kernel/pc/pid.o
 .reginfo       0x0000000000000000       0x18 kernel/lock/lock.o
 .MIPS.abiflags
                0x0000000000000000       0x18 kernel/lock/lock.o
 .reginfo       0x0000000000000000       0x18 kernel/vfs/ext2/ext2_super_operations.o
 .MIPS.abiflags
                0x0000000000000000       0x18 kernel/vfs/ext2/ext2_super_operations.o
 .reginfo       0x0000000000000000       0x18 kernel/vfs/ext2/ext2_inode_operations.o
 .MIPS.abiflags
                0x0000000000000000       0x18 kernel/vfs/ext2/ext2_inode_operations.o
 .reginfo       0x0000000000000000       0x18 kernel/vfs/ext2/ext2_utils.o
 .MIPS.abiflags
                0x0000000000000000       0x18 kernel/vfs/ext2/ext2_utils.o
 .reginfo       0x0000000000000000       0x18 kernel/vfs/ext2/ext2_dentry_operations.o
 .MIPS.abiflags
                0x0000000000000000       0x18 kernel/vfs/ext2/ext2_dentry_operations.o
 .reginfo       0x0000000000000000       0x18 kernel/vfs/ext2/ext2_init.o
 .MIPS.abiflags
                0x0000000000000000       0x18 kernel/vfs/ext2/ext2_init.o
 .reginfo       0x0000000000000000       0x18 kernel/vfs/ext2/ext2_file_operations.o
 .MIPS.abiflags
                0x0000000000000000       0x18 kernel/vfs/ext2/ext2_file_operations.o
 .reginfo       0x0000000000000000       0x18 kernel/vfs/ext2/ext2_address_space_operations.o
 .MIPS.abiflags
                0x0000000000000000       0x18 kernel/vfs/ext2/ext2_address_space_operations.o
 .reginfo       0x0000000000000000       0x18 kernel/vfs/vfscache.o
 .MIPS.abiflags
                0x0000000000000000       0x18 kernel/vfs/vfscache.o
 .reginfo       0x0000000000000000       0x18 kernel/vfs/mount.o
 .MIPS.abiflags
                0x0000000000000000       0x18 kernel/vfs/mount.o
 .reginfo       0x0000000000000000       0x18 kernel/vfs/vfs_init.o
 .MIPS.abiflags
                0x0000000000000000       0x18 kernel/vfs/vfs_init.o
 .reginfo       0x0000000000000000       0x18 kernel/vfs/vfs_primitives/open.o
 .MIPS.abiflags
                0x0000000000000000       0x18 kernel/vfs/vfs_primitives/open.o
 .reginfo       0x0000000000000000       0x18 kernel/vfs/vfs_primitives/read_write.o
 .MIPS.abiflags
                0x0000000000000000       0x18 kernel/vfs/vfs_primitives/read_write.o
 .reginfo       0x0000000000000000       0x18 kernel/vfs/usr.o
 .MIPS.abiflags
                0x0000000000000000       0x18 kernel/vfs/usr.o
 .reginfo       0x0000000000000000       0x18 kernel/vfs/utils.o
 .MIPS.abiflags
                0x0000000000000000       0x18 kernel/vfs/utils.o
 .reginfo       0x0000000000000000       0x18 kernel/vfs/fat32/fat32_inode_operations.o
 .MIPS.abiflags
                0x0000000000000000       0x18 kernel/vfs/fat32/fat32_inode_operations.o
 .reginfo       0x0000000000000000       0x18 kernel/vfs/fat32/fat32_dentry_operations.o
 .MIPS.abiflags
                0x0000000000000000       0x18 kernel/vfs/fat32/fat32_dentry_operations.o
 .reginfo       0x0000000000000000       0x18 kernel/vfs/fat32/fat32_utils.o
 .MIPS.abiflags
                0x0000000000000000       0x18 kernel/vfs/fat32/fat32_utils.o
 .reginfo       0x0000000000000000       0x18 kernel/vfs/fat32/fat32_init.o
 .MIPS.abiflags
                0x0000000000000000       0x18 kernel/vfs/fat32/fat32_init.o
 .reginfo       0x0000000000000000       0x18 kernel/vfs/fat32/fat32_file_operations.o
 .MIPS.abiflags
                0x0000000000000000       0x18 kernel/vfs/fat32/fat32_file_operations.o
 .reginfo       0x0000000000000000       0x18 kernel/vfs/fat32/fat32_address_space_operations.o
 .MIPS.abiflags
                0x0000000000000000       0x18 kernel/vfs/fat32/fat32_address_space_operations.o
 .reginfo       0x0000000000000000       0x18 kernel/vfs/fat32/fat32_super_operations.o
 .MIPS.abiflags
                0x0000000000000000       0x18 kernel/vfs/fat32/fat32_super_operations.o
 .reginfo       0x0000000000000000       0x18 kernel/mm/myslab.o
 .MIPS.abiflags
                0x0000000000000000       0x18 kernel/mm/myslab.o
 .reginfo       0x0000000000000000       0x18 kernel/mm/mybuddy.o
 .MIPS.abiflags
                0x0000000000000000       0x18 kernel/mm/mybuddy.o
 .reginfo       0x0000000000000000       0x18 kernel/mm/mybootmm.o
 .MIPS.abiflags
                0x0000000000000000       0x18 kernel/mm/mybootmm.o
 .reginfo       0x0000000000000000       0x18 kernel/init.o
 .MIPS.abiflags
                0x0000000000000000       0x18 kernel/init.o
 .reginfo       0x0000000000000000       0x18 utils/assert.o
 .MIPS.abiflags
                0x0000000000000000       0x18 utils/assert.o
 .reginfo       0x0000000000000000       0x18 utils/log.o
 .MIPS.abiflags
                0x0000000000000000       0x18 utils/log.o
 .reginfo       0x0000000000000000       0x18 utils/utils.o
 .MIPS.abiflags
                0x0000000000000000       0x18 utils/utils.o
 .reginfo       0x0000000000000000       0x18 usr/exec.o
 .MIPS.abiflags
                0x0000000000000000       0x18 usr/exec.o
 .reginfo       0x0000000000000000       0x18 usr/myvi.o
 .MIPS.abiflags
                0x0000000000000000       0x18 usr/myvi.o
 .reginfo       0x0000000000000000       0x18 usr/ls.o
 .MIPS.abiflags
                0x0000000000000000       0x18 usr/ls.o
 .reginfo       0x0000000000000000       0x18 usr/ps.o
 .MIPS.abiflags
                0x0000000000000000       0x18 usr/ps.o

Memory Configuration

Name             Origin             Length             Attributes
*default*        0x0000000000000000 0xffffffffffffffff

Linker script and memory map

                0x0000000080020000                . = 0x80020000

.interp
 *(.interp)

.gnu.version
 *(.gnu.version)

.gnu.version_d
 *(.gnu.version_d)

.gnu.version_r
 *(.gnu.version_r)

.rel.dyn        0x0000000080020000        0x0
 .rel.dyn       0x0000000080020000        0x0 kernel/vfs/ext2/ext2_super_operations.o

.rel.init
 *(.rel.init)

.rela.init
 *(.rela.init)

.rel.text
 *(.rel.text)
 *(.rel.text.*)
 *(.rel.gnu.linkonce.t*)

.rela.text
 *(.rela.text)
 *(.rela.text.*)
 *(.rela.gnu.linkonce.t*)

.rel.fini
 *(.rel.fini)

.rela.fini
 *(.rela.fini)

.rel.rodata
 *(.rel.rodata)
 *(.rel.rodata.*)
 *(.rel.gnu.linkonce.r*)

.rela.rodata
 *(.rela.rodata)
 *(.rela.rodata.*)
 *(.rela.gnu.linkonce.r*)

.rel.data
 *(.rel.data)
 *(.rel.data.*)
 *(.rel.gnu.linkonce.d*)

.rela.data
 *(.rela.data)
 *(.rela.data.*)
 *(.rela.gnu.linkonce.d*)

.rel.ctors
 *(.rel.ctors)

.rela.ctors
 *(.rela.ctors)

.rel.dtors
 *(.rel.dtors)

.rela.dtors
 *(.rela.dtors)

.rel.got
 *(.rel.got)

.rela.got
 *(.rela.got)

.rel.sdata
 *(.rel.sdata)
 *(.rel.sdata1)
 *(.rel.sdata.*)
 *(.rel.gnu.linkonce.s*)

.rela.sdata
 *(.rela.sdata)
 *(.rela.sdata1)
 *(.rela.sdata.*)
 *(.rela.gnu.linkonce.s*)

.rel.sbss
 *(.rel.sbss)

.rela.sbss
 *(.rela.sbss)

.rel.sdata2
 *(.rel.sdata2)

.rela.sdata2
 *(.rela.sdata2)

.rel.sbss2
 *(.rel.sbss2)

.rela.sbss2
 *(.rela.sbss2)

.rel.bss
 *(.rel.bss)

.rela.bss
 *(.rela.bss)

.rel.plt
 *(.rel.plt)

.rela.plt
 *(.rela.plt)

.plt
 *(.plt)
                0x0000000080000000                . = 0x80000000

.text           0x0000000080000000    0x19130
                0x0000000080000000                _ftext = .
 *(.text)
 .text          0x0000000080000000     0x1014 arch/mips32/start.o
                0x0000000080000000                exception
                0x00000000800002d0                restore_context
                0x0000000080001000                start
 .text          0x0000000080001014       0x24 arch/mips32/arch.o
                0x0000000080001014                get_phymm_size
 .text          0x0000000080001038       0x60 arch/mips32/page.o
                0x0000000080001038                init_pgtable
 .text          0x0000000080001098      0x1f4 arch/mips32/intr.o
                0x0000000080001098                init_interrupts
                0x00000000800010cc                enable_interrupts
                0x0000000080001108                disable_interrupts
                0x0000000080001148                do_interrupts
                0x0000000080001218                register_interrupt_handler
 .text          0x000000008000128c      0x844 arch/mips32/exc.o
                0x000000008000128c                tlb_refill
                0x0000000080001908                do_exceptions
                0x0000000080001a4c                register_exception_handler
                0x0000000080001aa0                init_exception
 .text          0x0000000080001ad0      0x4bc kernel/time/time.o
                0x0000000080001ad0                get_time_string
                0x0000000080001dfc                system_time_proc
                0x0000000080001f08                get_time
 .text          0x0000000080001f8c      0x140 kernel/syscall/syscall.o
                0x0000000080001f8c                init_syscall
                0x0000000080001fdc                syscall
                0x000000008000207c                register_syscall
 .text          0x00000000800020cc       0x6c kernel/syscall/syscall4.o
                0x00000000800020cc                syscall4
 .text          0x0000000080002138      0x5c4 kernel/driver/ps2.o
                0x0000000080002138                init_buffer
                0x00000000800021bc                init_ps2
                0x0000000080002214                ps2_handler
                0x000000008000250c                kernel_getkey
                0x00000000800025bc                kernel_scantoascii
                0x0000000080002660                sleep
                0x000000008000269c                kernel_getchar
 .text          0x00000000800026fc      0x990 kernel/driver/vga.o
                0x00000000800026fc                kernel_set_cursor
                0x000000008000274c                init_vga
                0x000000008000279c                kernel_clear_screen
                0x0000000080002810                kernel_scroll_screen
                0x00000000800028b0                kernel_putchar_at
                0x0000000080002950                kernel_putchar
                0x0000000080002b3c                kernel_puts
                0x0000000080002bc0                kernel_putint
                0x0000000080002d1c                kernel_putintx
                0x0000000080002dec                kernel_vprintf
                0x0000000080003028                kernel_printf
 .text          0x000000008000308c      0x488 kernel/driver/sd.o
                0x000000008000313c                sd_read_sector_blocking
                0x0000000080003270                sd_write_sector_blocking
                0x00000000800033ac                sd_read_block
                0x0000000080003460                sd_write_block
 .text          0x0000000080003514      0xa30 kernel/vm/vm.o
                0x0000000080003514                mm_create
                0x00000000800035cc                mm_delete
                0x0000000080003624                pgd_delete
                0x0000000080003744                find_vma
                0x000000008000382c                find_vma_intersection
                0x00000000800038a0                find_vma_and_prev
                0x000000008000394c                get_unmapped_area
                0x0000000080003a94                find_vma_prepare
                0x0000000080003b18                insert_vma_struct
                0x0000000080003bbc                do_map
                0x0000000080003ca0                do_unmap
                0x0000000080003df8                exit_mmap
                0x0000000080003ec4                is_in_vma
 .text          0x0000000080003f44       0x24 kernel/vm/tlb.o
                0x0000000080003f44                set_tlb_asid
 .text          0x0000000080003f68       0x24 kernel/fs/ext2/ext2.o
                0x0000000080003f68                init_fs_ext2
 .text          0x0000000080003f8c        0x0 kernel/fs/ext2/usr.o
 .text          0x0000000080003f8c        0x0 kernel/fs/debug.o
 .text          0x0000000080003f8c       0x7c kernel/fs/ext2_utils.o
                0x0000000080003f8c                get_filename_ext2
                0x0000000080003fb8                get_entry_filesize_ext2
                0x0000000080003fe0                get_entry_attr_ext2
 .text          0x0000000080004008      0x640 kernel/fs/fat/dir.o
                0x0000000080004008                fs_open_dir_fat
                0x0000000080004264                fs_read_dir_fat
 .text          0x0000000080004648     0x2d2c kernel/fs/fat/fat.o
                0x0000000080004ab8                init_fs_fat
                0x0000000080004b30                write_fat_sector
                0x0000000080004d08                read_fat_sector
                0x0000000080004edc                fs_next_slash
                0x0000000080005174                fs_cmp_filename
                0x00000000800051fc                fs_find_fat
                0x0000000080005700                fs_open_fat
                0x0000000080005894                fs_fflush_fat
                0x0000000080005a08                fs_close_fat
                0x0000000080005bac                fs_read_fat
                0x0000000080005f6c                fs_next_free
                0x000000008000603c                fs_alloc
                0x0000000080006224                fs_write_fat
                0x000000008000685c                fs_lseek_fat
                0x00000000800068c8                fs_find_empty_entry
                0x0000000080006c34                fs_create_with_attr
                0x0000000080007090                fs_create_fat
                0x00000000800070cc                get_filename
 .text          0x0000000080007374      0x7f0 kernel/fs/fat/usr.o
                0x0000000080007374                fs_rm_fat
                0x00000000800074b8                fs_mv_fat
                0x00000000800076c8                fs_mkdir_fat
                0x0000000080007a6c                fs_cat_fat
 .text          0x0000000080007b64      0x40c kernel/fs/fat_utils.o
                0x0000000080007b64                get_start_cluster
                0x0000000080007ba0                get_fat_entry_value
                0x0000000080007c70                fs_modify_fat
                0x0000000080007db4                cluster_to_fat_entry
                0x0000000080007e30                fs_dataclus2sec
                0x0000000080007e98                fs_sec2dataclus
                0x0000000080007f00                get_entry_filesize_fat
                0x0000000080007f40                get_entry_attr_fat
 .text          0x0000000080007f70       0x5c kernel/fs/utils.o
                0x0000000080007f70                fs_wa
 .text          0x0000000080007fcc      0xcd8 kernel/fs/fscache/fscache.o
                0x0000000080007fcc                fs_victim_4k
                0x0000000080008220                fs_write_4k
                0x00000000800082d8                fs_read_4k
                0x00000000800084fc                fs_clr_4k
                0x0000000080008650                fs_victim_512
                0x00000000800088a4                fs_write_512
                0x0000000080008950                fs_read_512
                0x0000000080008b64                fs_clr_512
 .text          0x0000000080008ca4      0x2c0 kernel/pc/page.o
                0x0000000080008ca4                do_one_mapping
                0x0000000080008eac                do_mapping
 .text          0x0000000080008f64      0x130 kernel/pc/switch_ex.o
                0x0000000080008f64                switch_ex
                0x0000000080009000                switch_wa
 .text          0x0000000080009094       0x1c kernel/pc/enter_user_pc.o
                0x0000000080009094                enter_new_pc
 .text          0x00000000800090b0     0x1e2c kernel/pc/pc.o
                0x00000000800092a4                activate_mm
                0x00000000800092e8                waitpid
                0x0000000080009470                wakeup_parent
                0x0000000080009590                add_wait
                0x00000000800095d8                add_exited
                0x0000000080009620                add_task
                0x0000000080009668                add_sched
                0x00000000800096b0                add_sched_back
                0x000000008000973c                remove_task
                0x0000000080009794                remove_exited
                0x00000000800097ec                remove_sched
                0x0000000080009844                find_in_tasks
                0x00000000800098c8                find_in_sched
                0x00000000800099f4                task_files_delete
                0x0000000080009c78                init_pc_list
                0x0000000080009d54                init_pc
                0x0000000080009e78                exec_from_kernel
                0x0000000080009f68                runprog
                0x000000008000a090                task_create
                0x000000008000a330                pc_kill
                0x000000008000a4b8                clear_exited
                0x000000008000a564                pc_exit
                0x000000008000a6c0                pc_schedule
                0x000000008000a794                find_next_task
                0x000000008000a910                find_in_sched_back
                0x000000008000a9e0                print_sched
                0x000000008000ab08                print_task
                0x000000008000ab8c                print_exited
                0x000000008000ac10                print_struct_task
                0x000000008000ac90                print_wait
                0x000000008000ad10                vmprog22
                0x000000008000adb8                vmprog
                0x000000008000aeb4                runuserprog
 .text          0x000000008000aedc      0x320 kernel/pc/pid.o
                0x000000008000aedc                init_pid
                0x000000008000af50                pid_check
                0x000000008000afe4                pid_alloc
                0x000000008000b12c                pid_free
 .text          0x000000008000b1fc      0x148 kernel/lock/lock.o
                0x000000008000b238                init_lock
                0x000000008000b280                lockup
                0x000000008000b2dc                unlock
 .text          0x000000008000b344      0xb84 kernel/vfs/ext2/ext2_super_operations.o
                0x000000008000b434                ext2_delete_inode
                0x000000008000bd04                ext2_write_inode
 .text          0x000000008000bec8      0x8e0 kernel/vfs/ext2/ext2_inode_operations.o
                0x000000008000bfe0                ext2_inode_lookup
                0x000000008000c45c                ext2_create
                0x000000008000c490                ext2_fill_inode
                0x000000008000c5d0                ext2_inode_find_from_ram_to_disk
 .text          0x000000008000c7a8      0x244 kernel/vfs/ext2/ext2_utils.o
                0x000000008000c7a8                ext2_check_inode_bitmap
                0x000000008000c8c8                ext2_group_base_sect
 .text          0x000000008000c9ec        0x0 kernel/vfs/ext2/ext2_dentry_operations.o
 .text          0x000000008000c9ec      0x7ac kernel/vfs/ext2/ext2_init.o
                0x000000008000cadc                init_ext2
 .text          0x000000008000d198      0x580 kernel/vfs/ext2/ext2_file_operations.o
                0x000000008000d288                ext2_readdir
 .text          0x000000008000d718      0x54c kernel/vfs/ext2/ext2_address_space_operations.o
                0x000000008000d718                ext2_readpage
                0x000000008000d834                ext2_writepage
                0x000000008000d8f0                ext2_bmap
 .text          0x000000008000dc64      0xe2c kernel/vfs/vfscache.o
                0x000000008000de08                init_cache
                0x000000008000df90                cache_init
                0x000000008000e070                cache_is_full
                0x000000008000e0b0                dcache_look_up
                0x000000008000e24c                dcache_add
                0x000000008000e328                dcache_put_LRU
                0x000000008000e4f4                pcache_look_up
                0x000000008000e66c                pcache_add
                0x000000008000e748                pcache_put_LRU
                0x000000008000e818                pcache_write_back
                0x000000008000e86c                dget
                0x000000008000e8a8                dput
                0x000000008000e8e4                release_dentry
                0x000000008000e920                release_inode
                0x000000008000e95c                release_page
                0x000000008000e9ac                __intHash
                0x000000008000e9ec                __stringHash
 .text          0x000000008000ea90      0x2bc kernel/vfs/mount.o
                0x000000008000ea90                mount_ext2
                0x000000008000ebcc                follow_mount
                0x000000008000eca8                lookup_mnt
 .text          0x000000008000ed4c      0x30c kernel/vfs/vfs_init.o
                0x000000008000ed4c                init_vfs
                0x000000008000ef1c                vfs_read_MBR
 .text          0x000000008000f058      0x930 kernel/vfs/vfs_primitives/open.o
                0x000000008000f170                vfs_open
                0x000000008000f200                open_namei
                0x000000008000f254                path_lookup
                0x000000008000f304                link_path_walk
                0x000000008000f464                real_lookup
                0x000000008000f52c                dentry_open
                0x000000008000f638                vfs_close
                0x000000008000f69c                d_alloc
 .text          0x000000008000f988      0xbb0 kernel/vfs/vfs_primitives/read_write.o
                0x000000008000fa78                vfs_read
                0x000000008000fb2c                vfs_write
                0x000000008000fbe0                generic_file_read
                0x000000008001001c                generic_file_write
                0x0000000080010478                generic_file_flush
 .text          0x0000000080010538      0x5d8 kernel/vfs/usr.o
                0x00000000800105b0                vfs_cat
                0x0000000080010710                vfs_cd
                0x00000000800107b4                vfs_ls
                0x0000000080010a3c                vfs_rm
 .text          0x0000000080010b10      0x448 kernel/vfs/utils.o
                0x0000000080010b10                read_block
                0x0000000080010b58                write_block
                0x0000000080010ba0                get_u16
                0x0000000080010bf0                get_u32
                0x0000000080010c5c                set_u16
                0x0000000080010cb8                set_u32
                0x0000000080010d3c                generic_compare_filename
                0x0000000080010e00                get_bit
                0x0000000080010e6c                set_bit
                0x0000000080010edc                reset_bit
 .text          0x0000000080010f58      0x7a0 kernel/vfs/fat32/fat32_inode_operations.o
                0x0000000080011048                fat32_inode_lookup
                0x00000000800116c4                fat32_create
 .text          0x00000000800116f8        0x0 kernel/vfs/fat32/fat32_dentry_operations.o
 .text          0x00000000800116f8      0x828 kernel/vfs/fat32/fat32_utils.o
                0x00000000800116f8                fat32_convert_filename
                0x0000000080011e60                read_fat
 .text          0x0000000080011f20      0x9c0 kernel/vfs/fat32/fat32_init.o
                0x0000000080012010                init_fat32
 .text          0x00000000800128e0      0x5d0 kernel/vfs/fat32/fat32_file_operations.o
                0x00000000800129d0                fat32_readdir
 .text          0x0000000080012eb0      0x1e8 kernel/vfs/fat32/fat32_address_space_operations.o
                0x0000000080012eb0                fat32_readpage
                0x0000000080012fb0                fat32_writepage
                0x0000000080013058                fat32_bmap
 .text          0x0000000080013098      0x824 kernel/vfs/fat32/fat32_super_operations.o
                0x0000000080013188                fat32_delete_inode
                0x00000000800134cc                fat32_write_inode
 .text          0x00000000800138bc      0xbf4 kernel/mm/myslab.o
                0x0000000080013ae0                init_kmem_cpu
                0x0000000080013b0c                init_kmem_node
                0x0000000080013b5c                init_each_slab
                0x0000000080013be0                init_slab
                0x0000000080013c78                format_slabpage
                0x0000000080013d2c                slab_alloc
                0x0000000080013fb4                slab_free
                0x0000000080014170                get_slab
                0x0000000080014280                kmalloc
                0x00000000800142f8                phy_kmalloc
                0x00000000800143f0                kfree
 .text          0x00000000800144b0      0xbfc kernel/mm/mybuddy.o
                0x0000000080014668                buddy_info
                0x0000000080014744                init_pages
                0x0000000080014864                init_buddy
                0x0000000080014b18                __free_pages
                0x0000000080014da4                __alloc_pages
                0x0000000080014f8c                alloc_pages
                0x0000000080015050                free_pages
 .text          0x00000000800150ac      0xf98 kernel/mm/mybootmm.o
                0x00000000800150ac                set_mminfo
                0x0000000080015100                insert_mminfo
                0x0000000080015408                split_mminfo
                0x00000000800155e0                remove_mminfo
                0x00000000800156dc                init_bootmm
                0x000000008001582c                set_maps
                0x00000000800158a4                find_pages
                0x0000000080015a8c                bootmm_alloc_pages
                0x0000000080015bd8                bootmap_info
                0x0000000080015cec                bootmm_free_pages
 .text          0x0000000080016044      0x330 kernel/init.o
                0x0000000080016044                machine_info
                0x00000000800160e8                create_startup_process
                0x0000000080016174                init_kernel
 .text          0x0000000080016374       0x5c utils/assert.o
                0x0000000080016374                assert
 .text          0x00000000800163d0      0x268 utils/log.o
                0x00000000800163d0                log_level_adv
                0x000000008001640c                log_level_rec
                0x0000000080016444                log
                0x00000000800165c4                step
                0x0000000080016614                step_reset
 .text          0x0000000080016638      0x38c utils/utils.o
                0x0000000080016638                kernel_memcpy
                0x00000000800166bc                kernel_memset
                0x00000000800166f0                kernel_memset_word
                0x0000000080016750                kernel_strcmp
                0x00000000800167d8                kernel_strcpy
                0x0000000080016834                pow
                0x00000000800168b0                kernel_cache
                0x00000000800168f4                kernel_serial_puts
                0x000000008001694c                kernel_serial_putc
                0x0000000080016984                is_bound
 .text          0x00000000800169c4      0x1d0 usr/exec.o
                0x00000000800169c4                exec
 .text          0x0000000080016b94     0x1370 usr/myvi.o
                0x0000000080016c0c                myvi_init
                0x0000000080016c88                to_lower_case
                0x0000000080016ce8                mystrcpy
                0x0000000080016d44                load_file
                0x0000000080016f5c                save_file
                0x0000000080017048                insert_key
                0x0000000080017118                delete_key
                0x00000000800171ac                put_char_on_screen
                0x0000000080017218                screen_flush
                0x0000000080017620                get_key
                0x0000000080017654                page_location_last_line
                0x00000000800176f0                page_location_next_line
                0x0000000080017784                cursor_prev_line
                0x0000000080017858                cursor_next_line
                0x00000000800178f0                do_command_mode
                0x0000000080017b0c                do_insert_mode
                0x0000000080017c20                do_last_line_mode
                0x0000000080017dec                myvi
 .text          0x0000000080017f04      0x370 usr/ls.o
                0x0000000080017f04                cut_front_blank
                0x0000000080017fd0                strlen
                0x0000000080018028                each_param
                0x00000000800180e8                ls
 .text          0x0000000080018274      0xebc usr/ps.o
                0x0000000080018274                test_proc
                0x00000000800182e8                testMem
                0x00000000800183fc                testMem2
                0x0000000080018420                test_sync
                0x00000000800184cc                sync_demo_create
                0x00000000800184f0                ps
                0x000000008001873c                parse_cmd
 *(.text.*)
 *(.stub)
 *(.gnu.warning)
 *(.gnu.linkonce.t*)
 *(.mips16.fn.*)
 *(.mips16.call.*)
                0x0000000080019130                _ecode = .

.init
 *(.init)

.fini
 *(.fini)

.rodata         0x0000000080019130     0x1001
 *(.rodata)
 .rodata        0x0000000080019130      0x20c arch/mips32/exc.o
 .rodata        0x000000008001933c       0x38 kernel/time/time.o
 .rodata        0x0000000080019374       0x14 kernel/syscall/syscall4.o
 .rodata        0x0000000080019388       0x14 kernel/driver/vga.o
 .rodata        0x000000008001939c       0x1c kernel/vm/vm.o
 .rodata        0x00000000800193b8       0xa7 kernel/fs/fat/fat.o
 *fill*         0x000000008001945f        0x1 
 .rodata        0x0000000080019460       0x18 kernel/fs/fat/usr.o
 .rodata        0x0000000080019478      0x3d9 kernel/pc/pc.o
 *fill*         0x0000000080019851        0x3 
 .rodata        0x0000000080019854        0xa kernel/vfs/ext2/ext2_init.o
 *fill*         0x000000008001985e        0x2 
 .rodata        0x0000000080019860        0x5 kernel/vfs/mount.o
 *fill*         0x0000000080019865        0x3 
 .rodata        0x0000000080019868       0x5e kernel/vfs/vfs_init.o
 *fill*         0x00000000800198c6        0x2 
 .rodata        0x00000000800198c8       0x62 kernel/vfs/usr.o
 *fill*         0x000000008001992a        0x2 
 .rodata        0x000000008001992c        0xa kernel/vfs/fat32/fat32_init.o
 *fill*         0x0000000080019936        0x2 
 .rodata        0x0000000080019938       0x68 kernel/mm/myslab.o
 .rodata        0x00000000800199a0       0xa4 kernel/mm/mybuddy.o
 .rodata        0x0000000080019a44       0xd4 kernel/mm/mybootmm.o
 .rodata        0x0000000080019b18      0x13b kernel/init.o
 *fill*         0x0000000080019c53        0x1 
 .rodata        0x0000000080019c54       0x14 utils/assert.o
 .rodata        0x0000000080019c68       0x78 utils/log.o
 .rodata        0x0000000080019ce0       0x13 usr/exec.o
 *fill*         0x0000000080019cf3        0x1 
 .rodata        0x0000000080019cf4      0x158 usr/myvi.o
 .rodata        0x0000000080019e4c       0x37 usr/ls.o
 *fill*         0x0000000080019e83        0x1 
 .rodata        0x0000000080019e84      0x2ad usr/ps.o
 *(.rodata.*)
 *(.gnu.linkonce.r*)

.MIPS.abiflags  0x000000008001a138       0x18
 .MIPS.abiflags
                0x000000008001a138       0x18 arch/mips32/start.o

.rodata1
 *(.rodata1)

.sdata2
 *(.sdata2)

.sbss2
 *(.sbss2)

.sdeinit
 *(.sdeinit)

.sdefini
 *(.sdefini)

.eh_frame
 *(.eh_frame)

.gcc_except_table
 *(.gcc_except_table)

.ctors
 *crt0.o(.ctors)
 *crtbegin.o(.ctors)
 *crtbeginS.o(.ctors)
 *(EXCLUDE_FILE(*crtn.o *crtendS.o *crtend.o) .ctors)
 *(SORT(.ctors.*))
 *(.ctors)

.dtors
 *crt0.o(.dtors)
 *crtbegin.o(.dtors)
 *crtbeginS.o(.dtors)
 *(EXCLUDE_FILE(*crtn.o *crtendS.o *crtend.o) .dtors)
 *(SORT(.dtors.*))
 *(.dtors)

.dynamic
 *(.dynamic)

.dynsym
 *(.dynsym)

.hash
 *(.hash)

.dynstr
 *(.dynstr)
                0x000000008001a150                __etext = .
                0x000000008001a150                _etext = .
                [!provide]                        PROVIDE (etext, .)
                0x000000008001a150                . = ALIGN (0x8)

.data           0x000000008001a150      0x1d4
                0x000000008001a150                _fdata = .
 *(.data)
 .data          0x000000008001a150        0x0 arch/mips32/start.o
 .data          0x000000008001a150        0x0 arch/mips32/arch.o
 .data          0x000000008001a150        0x0 arch/mips32/page.o
 .data          0x000000008001a150        0x0 arch/mips32/intr.o
 .data          0x000000008001a150        0x0 arch/mips32/exc.o
 .data          0x000000008001a150        0x0 kernel/time/time.o
 .data          0x000000008001a150        0x0 kernel/syscall/syscall.o
 .data          0x000000008001a150        0x0 kernel/syscall/syscall4.o
 .data          0x000000008001a150      0x100 kernel/driver/ps2.o
                0x000000008001a150                scantoascii_uppercase
                0x000000008001a1d0                scantoascii_lowercase
 .data          0x000000008001a250        0x0 kernel/driver/vga.o
 .data          0x000000008001a250        0x0 kernel/driver/sd.o
 .data          0x000000008001a250        0x0 kernel/vm/vm.o
 .data          0x000000008001a250        0x0 kernel/vm/tlb.o
 .data          0x000000008001a250        0x0 kernel/fs/ext2/ext2.o
 .data          0x000000008001a250        0x0 kernel/fs/ext2/usr.o
 .data          0x000000008001a250        0x0 kernel/fs/debug.o
 .data          0x000000008001a250        0x0 kernel/fs/ext2_utils.o
 .data          0x000000008001a250        0x0 kernel/fs/fat/dir.o
 .data          0x000000008001a250        0x0 kernel/fs/fat/fat.o
 .data          0x000000008001a250        0x0 kernel/fs/fat/usr.o
 .data          0x000000008001a250        0x0 kernel/fs/fat_utils.o
 .data          0x000000008001a250        0x0 kernel/fs/utils.o
 .data          0x000000008001a250        0x0 kernel/fs/fscache/fscache.o
 .data          0x000000008001a250        0x0 kernel/pc/page.o
 .data          0x000000008001a250        0x0 kernel/pc/switch_ex.o
 .data          0x000000008001a250        0x0 kernel/pc/enter_user_pc.o
 .data          0x000000008001a250        0x0 kernel/pc/pc.o
 .data          0x000000008001a250        0x0 kernel/pc/pid.o
 .data          0x000000008001a250        0x0 kernel/lock/lock.o
 .data          0x000000008001a250        0x0 kernel/vfs/ext2/ext2_super_operations.o
 .data          0x000000008001a250       0x10 kernel/vfs/ext2/ext2_inode_operations.o
                0x000000008001a250                ext2_inode_operations
 .data          0x000000008001a260        0x0 kernel/vfs/ext2/ext2_utils.o
 .data          0x000000008001a260        0x0 kernel/vfs/ext2/ext2_dentry_operations.o
 .data          0x000000008001a260        0x0 kernel/vfs/ext2/ext2_init.o
 .data          0x000000008001a260       0x10 kernel/vfs/ext2/ext2_file_operations.o
                0x000000008001a260                ext2_file_operations
 .data          0x000000008001a270        0xc kernel/vfs/ext2/ext2_address_space_operations.o
                0x000000008001a270                ext2_address_space_operations
 .data          0x000000008001a27c       0x30 kernel/vfs/vfscache.o
                0x000000008001a27c                dentry_cache_operations
                0x000000008001a28c                inode_cache_operations
                0x000000008001a29c                page_cache_operations
 .data          0x000000008001a2ac        0x0 kernel/vfs/mount.o
 .data          0x000000008001a2ac        0x0 kernel/vfs/vfs_init.o
 .data          0x000000008001a2ac        0x0 kernel/vfs/vfs_primitives/open.o
 .data          0x000000008001a2ac        0x0 kernel/vfs/vfs_primitives/read_write.o
 .data          0x000000008001a2ac        0x0 kernel/vfs/usr.o
 .data          0x000000008001a2ac        0x0 kernel/vfs/utils.o
 .data          0x000000008001a2ac       0x10 kernel/vfs/fat32/fat32_inode_operations.o
                0x000000008001a2ac                fat32_inode_operations
 .data          0x000000008001a2bc        0x0 kernel/vfs/fat32/fat32_dentry_operations.o
 .data          0x000000008001a2bc        0x0 kernel/vfs/fat32/fat32_utils.o
 .data          0x000000008001a2bc        0x0 kernel/vfs/fat32/fat32_init.o
 .data          0x000000008001a2bc       0x10 kernel/vfs/fat32/fat32_file_operations.o
                0x000000008001a2bc                fat32_file_operations
 .data          0x000000008001a2cc        0xc kernel/vfs/fat32/fat32_address_space_operations.o
                0x000000008001a2cc                fat32_address_space_operations
 .data          0x000000008001a2d8        0x0 kernel/vfs/fat32/fat32_super_operations.o
 .data          0x000000008001a2d8       0x30 kernel/mm/myslab.o
 .data          0x000000008001a308        0x0 kernel/mm/mybuddy.o
 .data          0x000000008001a308       0x1c kernel/mm/mybootmm.o
                0x000000008001a308                mem_msg
 .data          0x000000008001a324        0x0 kernel/init.o
 .data          0x000000008001a324        0x0 utils/assert.o
 .data          0x000000008001a324        0x0 utils/log.o
 .data          0x000000008001a324        0x0 utils/utils.o
 .data          0x000000008001a324        0x0 usr/exec.o
 .data          0x000000008001a324        0x0 usr/myvi.o
 .data          0x000000008001a324        0x0 usr/ls.o
 .data          0x000000008001a324        0x0 usr/ps.o
 *(.data.*)
 *(.gnu.linkonce.d*)

.data1
 *(.data1)
                0x0000000080022320                _gp = (ALIGN (0x10) + 0x7ff0)

.got
 *(.got.plt)
 *(.got)

.sdata          0x000000008001a324       0x74
 *(.sdata)
 .sdata         0x000000008001a324       0x34 arch/mips32/arch.o
                0x000000008001a324                CHAR_VRAM
                0x000000008001a328                GRAPHIC_VRAM
                0x000000008001a32c                GPIO_SWITCH
                0x000000008001a330                GPIO_BUTTON
                0x000000008001a334                GPIO_SEG
                0x000000008001a338                GPIO_LED
                0x000000008001a33c                GPIO_PS2_DATA
                0x000000008001a340                GPIO_PS2_CTRL
                0x000000008001a344                GPIO_UART_DATA
                0x000000008001a348                GPIO_UART_CTRL
                0x000000008001a34c                GPIO_CURSOR
                0x000000008001a350                VGA_MODE
                0x000000008001a354                kernel_sp
 .sdata         0x000000008001a358        0x4 kernel/driver/ps2.o
 .sdata         0x000000008001a35c       0x18 kernel/driver/vga.o
                0x000000008001a35c                VGA_CHAR_MAX_ROW
                0x000000008001a360                VGA_CHAR_MAX_COL
                0x000000008001a364                VGA_CHAR_ROW
                0x000000008001a368                VGA_CHAR_COL
                0x000000008001a36c                cursor_freq
 .sdata         0x000000008001a374        0x8 kernel/driver/sd.o
 .sdata         0x000000008001a37c        0x8 kernel/vfs/ext2/ext2_super_operations.o
                0x000000008001a37c                ext2_super_operations
 .sdata         0x000000008001a384        0x4 kernel/vfs/ext2/ext2_dentry_operations.o
                0x000000008001a384                ext2_dentry_operations
 .sdata         0x000000008001a388        0x4 kernel/vfs/fat32/fat32_dentry_operations.o
                0x000000008001a388                fat32_dentry_operations
 .sdata         0x000000008001a38c        0x8 kernel/vfs/fat32/fat32_super_operations.o
                0x000000008001a38c                fat32_super_operations
 .sdata         0x000000008001a394        0x4 usr/exec.o
                0x000000008001a394                CACHE_BLOCK_SIZE
 *(.sdata1)
 *(.sdata.*)
 *(.gnu.linkonce.s.*)

.lit8
 *(.lit8)

.lit4
 *(.lit4)
                0x000000008001a398                . = ALIGN (0x8)
                0x000000008001a398                _edata = .
                [!provide]                        PROVIDE (edata, .)
                0x000000008001a398                __bss_start = .
                [!provide]                        PROVIDE (__edata, .)
                0x000000008001a398                _fbss = .

.sbss           0x000000008001a398       0xcc
                0x000000008001a398                __sbss_start = .
                0x000000008001a398                ___sbss_start = .
 *(.dynsbss)
 *(.sbss)
 .sbss          0x000000008001a398        0x8 arch/mips32/exc.o
                0x000000008001a398                count
                0x000000008001a39c                count_2
 .sbss          0x000000008001a3a0       0x14 kernel/driver/ps2.o
 .sbss          0x000000008001a3b4        0x8 kernel/fs/fat/fat.o
                0x000000008001a3b4                fat_clock_head
                0x000000008001a3b8                dir_data_clock_head
 .sbss          0x000000008001a3bc        0x4 kernel/pc/pc.o
                0x000000008001a3bc                current_task
 .sbss          0x000000008001a3c0        0x8 kernel/vfs/fat32/fat32_inode_operations.o
 .sbss          0x000000008001a3c8        0x8 kernel/vfs/fat32/fat32_init.o
 .sbss          0x000000008001a3d0        0x8 utils/log.o
                0x000000008001a3d0                gstep
 .sbss          0x000000008001a3d8        0xc usr/myvi.o
                0x000000008001a3d8                inst_len
                0x000000008001a3dc                size
                0x000000008001a3e0                page_location
 *(.sbss.*)
 *(.scommon)
 .scommon       0x000000008001a3e4        0x4 arch/mips32/intr.o
                0x000000008001a3e4                next_pid
 .scommon       0x000000008001a3e8        0x0 arch/mips32/exc.o
 .scommon       0x000000008001a3e8        0x0 kernel/time/time.o
 .scommon       0x000000008001a3e8        0x0 kernel/syscall/syscall.o
 .scommon       0x000000008001a3e8        0x0 kernel/syscall/syscall4.o
 .scommon       0x000000008001a3e8        0x0 kernel/driver/ps2.o
 .scommon       0x000000008001a3e8        0x8 kernel/driver/vga.o
                0x000000008001a3e8                cursor_col
                0x000000008001a3ec                cursor_row
 .scommon       0x000000008001a3f0        0x0 kernel/driver/sd.o
 .scommon       0x000000008001a3f0        0x0 kernel/vm/vm.o
 .scommon       0x000000008001a3f0        0x0 kernel/fs/ext2/ext2.o
 .scommon       0x000000008001a3f0        0x0 kernel/fs/fat/fat.o
 .scommon       0x000000008001a3f0       0x20 kernel/pc/pc.o
                0x000000008001a3f0                sched
                0x000000008001a3f8                tasks
                0x000000008001a400                wait
                0x000000008001a408                exited
 .scommon       0x000000008001a410        0x0 kernel/pc/pid.o
 .scommon       0x000000008001a410        0x0 kernel/lock/lock.o
 .scommon       0x000000008001a410        0x0 kernel/vfs/ext2/ext2_super_operations.o
 .scommon       0x000000008001a410        0x0 kernel/vfs/ext2/ext2_inode_operations.o
 .scommon       0x000000008001a410        0x0 kernel/vfs/ext2/ext2_utils.o
 .scommon       0x000000008001a410        0x0 kernel/vfs/ext2/ext2_dentry_operations.o
 .scommon       0x000000008001a410        0x0 kernel/vfs/ext2/ext2_init.o
 .scommon       0x000000008001a410        0x0 kernel/vfs/ext2/ext2_file_operations.o
 .scommon       0x000000008001a410        0x0 kernel/vfs/ext2/ext2_address_space_operations.o
 .scommon       0x000000008001a410        0xc kernel/vfs/vfscache.o
                0x000000008001a410                dcache
                0x000000008001a414                pcache
                0x000000008001a418                icache
 .scommon       0x000000008001a41c       0x14 kernel/vfs/vfs_init.o
                0x000000008001a41c                pwd_dentry
                0x000000008001a420                MBR
                0x000000008001a424                root_dentry
                0x000000008001a428                root_mnt
                0x000000008001a42c                pwd_mnt
 .scommon       0x000000008001a430        0xc kernel/mm/mybuddy.o
                0x000000008001a430                kernel_start_pfn
                0x000000008001a434                kernel_end_pfn
                0x000000008001a438                pages
 .scommon       0x000000008001a43c        0x8 kernel/mm/mybootmm.o
                0x000000008001a43c                firstusercode_start
                0x000000008001a440                firstusercode_len
 .scommon       0x000000008001a444        0x0 kernel/init.o
 .scommon       0x000000008001a444        0x0 usr/exec.o
 .scommon       0x000000008001a444       0x1c usr/myvi.o
                0x000000008001a444                cursor_location
                0x000000008001a448                is_new_file
                0x000000008001a44c                page_end
                0x000000008001a450                filename
                0x000000008001a454                mode
                0x000000008001a458                err
                0x000000008001a45c                pre_cursor_freq
 .scommon       0x000000008001a460        0x4 usr/ps.o
                0x000000008001a460                ps_buffer_index
                0x000000008001a464                __sbss_end = .
                0x000000008001a464                ___sbss_end = .

.bss            0x000000008001a464    0x17d58
 *(.dynbss)
 *(.bss)
 .bss           0x000000008001a464        0x0 arch/mips32/start.o
 .bss           0x000000008001a464        0x0 arch/mips32/arch.o
 .bss           0x000000008001a464        0x0 arch/mips32/page.o
 .bss           0x000000008001a464        0x0 arch/mips32/intr.o
 .bss           0x000000008001a464        0x0 arch/mips32/exc.o
 .bss           0x000000008001a464        0x0 kernel/time/time.o
 .bss           0x000000008001a464        0x0 kernel/syscall/syscall.o
 .bss           0x000000008001a464        0x0 kernel/syscall/syscall4.o
 .bss           0x000000008001a464      0x100 kernel/driver/ps2.o
 .bss           0x000000008001a564        0x0 kernel/driver/vga.o
 .bss           0x000000008001a564        0x0 kernel/driver/sd.o
 .bss           0x000000008001a564        0x0 kernel/vm/vm.o
 .bss           0x000000008001a564        0x0 kernel/vm/tlb.o
 .bss           0x000000008001a564        0x0 kernel/fs/ext2/ext2.o
 .bss           0x000000008001a564        0x0 kernel/fs/ext2/usr.o
 .bss           0x000000008001a564        0x0 kernel/fs/debug.o
 .bss           0x000000008001a564        0x0 kernel/fs/ext2_utils.o
 .bss           0x000000008001a564        0x0 kernel/fs/fat/dir.o
 .bss           0x000000008001a564        0x0 kernel/fs/fat/fat.o
 .bss           0x000000008001a564        0x0 kernel/fs/fat/usr.o
 .bss           0x000000008001a564        0x0 kernel/fs/fat_utils.o
 .bss           0x000000008001a564        0x0 kernel/fs/utils.o
 .bss           0x000000008001a564        0x0 kernel/fs/fscache/fscache.o
 .bss           0x000000008001a564        0x0 kernel/pc/page.o
 .bss           0x000000008001a564        0x0 kernel/pc/switch_ex.o
 .bss           0x000000008001a564        0x0 kernel/pc/enter_user_pc.o
 .bss           0x000000008001a564        0x0 kernel/pc/pc.o
 .bss           0x000000008001a564        0x0 kernel/pc/pid.o
 .bss           0x000000008001a564        0x0 kernel/lock/lock.o
 .bss           0x000000008001a564        0x0 kernel/vfs/ext2/ext2_super_operations.o
 .bss           0x000000008001a564        0x0 kernel/vfs/ext2/ext2_inode_operations.o
 .bss           0x000000008001a564        0x0 kernel/vfs/ext2/ext2_utils.o
 .bss           0x000000008001a564        0x0 kernel/vfs/ext2/ext2_dentry_operations.o
 .bss           0x000000008001a564        0x0 kernel/vfs/ext2/ext2_init.o
 .bss           0x000000008001a564        0x0 kernel/vfs/ext2/ext2_file_operations.o
 .bss           0x000000008001a564        0x0 kernel/vfs/ext2/ext2_address_space_operations.o
 .bss           0x000000008001a564        0x0 kernel/vfs/vfscache.o
 .bss           0x000000008001a564        0x0 kernel/vfs/mount.o
 .bss           0x000000008001a564        0x0 kernel/vfs/vfs_init.o
 .bss           0x000000008001a564        0x0 kernel/vfs/vfs_primitives/open.o
 .bss           0x000000008001a564        0x0 kernel/vfs/vfs_primitives/read_write.o
 .bss           0x000000008001a564        0x0 kernel/vfs/usr.o
 .bss           0x000000008001a564        0x0 kernel/vfs/utils.o
 .bss           0x000000008001a564       0x18 kernel/vfs/fat32/fat32_inode_operations.o
 .bss           0x000000008001a57c        0x0 kernel/vfs/fat32/fat32_dentry_operations.o
 .bss           0x000000008001a57c        0x0 kernel/vfs/fat32/fat32_utils.o
 .bss           0x000000008001a57c       0x18 kernel/vfs/fat32/fat32_init.o
 .bss           0x000000008001a594        0x0 kernel/vfs/fat32/fat32_file_operations.o
 .bss           0x000000008001a594        0x0 kernel/vfs/fat32/fat32_address_space_operations.o
 .bss           0x000000008001a594        0x0 kernel/vfs/fat32/fat32_super_operations.o
 .bss           0x000000008001a594        0x0 kernel/mm/myslab.o
 .bss           0x000000008001a594        0x0 kernel/mm/mybuddy.o
 .bss           0x000000008001a594        0x0 kernel/mm/mybootmm.o
 .bss           0x000000008001a594        0x0 kernel/init.o
 .bss           0x000000008001a594        0x0 utils/assert.o
 .bss           0x000000008001a594        0x0 utils/log.o
 .bss           0x000000008001a594        0x0 utils/utils.o
 .bss           0x000000008001a594        0x0 usr/exec.o
 .bss           0x000000008001a594       0x50 usr/myvi.o
                0x000000008001a594                instruction
 .bss           0x000000008001a5e4        0x0 usr/ls.o
 .bss           0x000000008001a5e4        0x0 usr/ps.o
 *(.bss.*)
 *(COMMON)
 COMMON         0x000000008001a5e4       0x40 arch/mips32/intr.o
                0x000000008001a5e4                interrupts
                0x000000008001a604                pidmap
 COMMON         0x000000008001a624       0x80 arch/mips32/exc.o
                0x000000008001a624                exceptions
 COMMON         0x000000008001a6a4      0x400 kernel/syscall/syscall.o
                0x000000008001a6a4                syscalls
 COMMON         0x000000008001aaa4     0x4150 kernel/fs/fat/dir.o
                0x000000008001aaa4                dir_find
 COMMON         0x000000008001ebf4     0x2058 kernel/fs/fat/fat.o
                0x000000008001ebf4                dir_data_buf
                0x000000008001f414                fat_info
                0x000000008001f82c                filename11
                0x000000008001f83c                new_alloc_empty
                0x000000008002083c                fat_buf
 COMMON         0x0000000080020c4c     0x4170 kernel/fs/fat/usr.o
                0x0000000080020c4c                file_create
                0x0000000080024d9c                mk_dir_buf
 COMMON         0x0000000080024dbc       0x30 kernel/pc/pc.o
                0x0000000080024dbc                sched_back
                0x0000000080024ddc                sched_time_cnt
 COMMON         0x0000000080024dec      0x150 kernel/mm/myslab.o
                0x0000000080024dec                kmalloc_caches
 COMMON         0x0000000080024f3c       0x54 kernel/mm/mybuddy.o
                0x0000000080024f3c                buddy
 COMMON         0x0000000080024f90     0x8090 kernel/mm/mybootmm.o
                0x0000000080024f90                bootmmmap
                0x000000008002cf90                bmm
 COMMON         0x000000008002d020     0x4150 usr/exec.o
                0x000000008002d020                file
 COMMON         0x0000000080031170     0x1000 usr/myvi.o
                0x0000000080031170                buffer
 COMMON         0x0000000080032170       0x4c usr/ps.o
                0x0000000080032170                lk
                0x000000008003217c                ps_buffer
                0x00000000800321bc                . = ALIGN (0x4)
                0x00000000800321bc                . = ALIGN (0x4)
                0x00000000800321bc                _end = .
                [!provide]                        PROVIDE (__end, .)
                [!provide]                        PROVIDE (end, .)

.stab
 *(.stab)

.stabstr
 *(.stabstr)

.stab.excl
 *(.stab.excl)

.stab.exclstr
 *(.stab.exclstr)

.stab.index
 *(.stab.index)

.stab.indexstr
 *(.stab.indexstr)

.comment        0x0000000000000000       0x88
 *(.comment)
 .comment       0x0000000000000000       0x44 arch/mips32/arch.o
                                         0x45 (size before relaxing)
 .comment       0x0000000000000044       0x45 arch/mips32/page.o
 .comment       0x0000000000000044       0x45 arch/mips32/intr.o
 .comment       0x0000000000000044       0x44 arch/mips32/exc.o
                                         0x45 (size before relaxing)
 .comment       0x0000000000000088       0x45 kernel/time/time.o
 .comment       0x0000000000000088       0x45 kernel/syscall/syscall.o
 .comment       0x0000000000000088       0x45 kernel/syscall/syscall4.o
 .comment       0x0000000000000088       0x45 kernel/driver/ps2.o
 .comment       0x0000000000000088       0x45 kernel/driver/vga.o
 .comment       0x0000000000000088       0x45 kernel/driver/sd.o
 .comment       0x0000000000000088       0x45 kernel/vm/vm.o
 .comment       0x0000000000000088       0x45 kernel/fs/ext2/ext2.o
 .comment       0x0000000000000088       0x45 kernel/fs/ext2/usr.o
 .comment       0x0000000000000088       0x45 kernel/fs/debug.o
 .comment       0x0000000000000088       0x45 kernel/fs/ext2_utils.o
 .comment       0x0000000000000088       0x45 kernel/fs/fat/dir.o
 .comment       0x0000000000000088       0x45 kernel/fs/fat/fat.o
 .comment       0x0000000000000088       0x45 kernel/fs/fat/usr.o
 .comment       0x0000000000000088       0x45 kernel/fs/fat_utils.o
 .comment       0x0000000000000088       0x45 kernel/fs/utils.o
 .comment       0x0000000000000088       0x45 kernel/fs/fscache/fscache.o
 .comment       0x0000000000000088       0x45 kernel/pc/page.o
 .comment       0x0000000000000088       0x45 kernel/pc/pc.o
 .comment       0x0000000000000088       0x45 kernel/pc/pid.o
 .comment       0x0000000000000088       0x45 kernel/lock/lock.o
 .comment       0x0000000000000088       0x45 kernel/vfs/ext2/ext2_super_operations.o
 .comment       0x0000000000000088       0x45 kernel/vfs/ext2/ext2_inode_operations.o
 .comment       0x0000000000000088       0x45 kernel/vfs/ext2/ext2_utils.o
 .comment       0x0000000000000088       0x45 kernel/vfs/ext2/ext2_dentry_operations.o
 .comment       0x0000000000000088       0x45 kernel/vfs/ext2/ext2_init.o
 .comment       0x0000000000000088       0x45 kernel/vfs/ext2/ext2_file_operations.o
 .comment       0x0000000000000088       0x45 kernel/vfs/ext2/ext2_address_space_operations.o
 .comment       0x0000000000000088       0x45 kernel/vfs/vfscache.o
 .comment       0x0000000000000088       0x45 kernel/vfs/mount.o
 .comment       0x0000000000000088       0x45 kernel/vfs/vfs_init.o
 .comment       0x0000000000000088       0x45 kernel/vfs/vfs_primitives/open.o
 .comment       0x0000000000000088       0x45 kernel/vfs/vfs_primitives/read_write.o
 .comment       0x0000000000000088       0x45 kernel/vfs/usr.o
 .comment       0x0000000000000088       0x45 kernel/vfs/utils.o
 .comment       0x0000000000000088       0x45 kernel/vfs/fat32/fat32_inode_operations.o
 .comment       0x0000000000000088       0x45 kernel/vfs/fat32/fat32_dentry_operations.o
 .comment       0x0000000000000088       0x45 kernel/vfs/fat32/fat32_utils.o
 .comment       0x0000000000000088       0x45 kernel/vfs/fat32/fat32_init.o
 .comment       0x0000000000000088       0x45 kernel/vfs/fat32/fat32_file_operations.o
 .comment       0x0000000000000088       0x45 kernel/vfs/fat32/fat32_address_space_operations.o
 .comment       0x0000000000000088       0x45 kernel/vfs/fat32/fat32_super_operations.o
 .comment       0x0000000000000088       0x45 kernel/mm/myslab.o
 .comment       0x0000000000000088       0x45 kernel/mm/mybuddy.o
 .comment       0x0000000000000088       0x45 kernel/mm/mybootmm.o
 .comment       0x0000000000000088       0x45 kernel/init.o
 .comment       0x0000000000000088       0x45 utils/assert.o
 .comment       0x0000000000000088       0x45 utils/log.o
 .comment       0x0000000000000088       0x45 utils/utils.o
 .comment       0x0000000000000088       0x45 usr/exec.o
 .comment       0x0000000000000088       0x45 usr/myvi.o
 .comment       0x0000000000000088       0x45 usr/ls.o
 .comment       0x0000000000000088       0x45 usr/ps.o

.gnu.attributes
                0x0000000000000000       0x10
 .gnu.attributes
                0x0000000000000000       0x10 arch/mips32/start.o
 .gnu.attributes
                0x0000000000000010       0x10 arch/mips32/arch.o
 .gnu.attributes
                0x0000000000000020       0x10 arch/mips32/page.o
 .gnu.attributes
                0x0000000000000030       0x10 arch/mips32/intr.o
 .gnu.attributes
                0x0000000000000040       0x10 arch/mips32/exc.o
 .gnu.attributes
                0x0000000000000050       0x10 kernel/time/time.o
 .gnu.attributes
                0x0000000000000060       0x10 kernel/syscall/syscall.o
 .gnu.attributes
                0x0000000000000070       0x10 kernel/syscall/syscall4.o
 .gnu.attributes
                0x0000000000000080       0x10 kernel/driver/ps2.o
 .gnu.attributes
                0x0000000000000090       0x10 kernel/driver/vga.o
 .gnu.attributes
                0x00000000000000a0       0x10 kernel/driver/sd.o
 .gnu.attributes
                0x00000000000000b0       0x10 kernel/vm/vm.o
 .gnu.attributes
                0x00000000000000c0       0x10 kernel/vm/tlb.o
 .gnu.attributes
                0x00000000000000d0       0x10 kernel/fs/ext2/ext2.o
 .gnu.attributes
                0x00000000000000e0       0x10 kernel/fs/ext2/usr.o
 .gnu.attributes
                0x00000000000000f0       0x10 kernel/fs/debug.o
 .gnu.attributes
                0x0000000000000100       0x10 kernel/fs/ext2_utils.o
 .gnu.attributes
                0x0000000000000110       0x10 kernel/fs/fat/dir.o
 .gnu.attributes
                0x0000000000000120       0x10 kernel/fs/fat/fat.o
 .gnu.attributes
                0x0000000000000130       0x10 kernel/fs/fat/usr.o
 .gnu.attributes
                0x0000000000000140       0x10 kernel/fs/fat_utils.o
 .gnu.attributes
                0x0000000000000150       0x10 kernel/fs/utils.o
 .gnu.attributes
                0x0000000000000160       0x10 kernel/fs/fscache/fscache.o
 .gnu.attributes
                0x0000000000000170       0x10 kernel/pc/page.o
 .gnu.attributes
                0x0000000000000180       0x10 kernel/pc/switch_ex.o
 .gnu.attributes
                0x0000000000000190       0x10 kernel/pc/enter_user_pc.o
 .gnu.attributes
                0x00000000000001a0       0x10 kernel/pc/pc.o
 .gnu.attributes
                0x00000000000001b0       0x10 kernel/pc/pid.o
 .gnu.attributes
                0x00000000000001c0       0x10 kernel/lock/lock.o
 .gnu.attributes
                0x00000000000001d0       0x10 kernel/vfs/ext2/ext2_super_operations.o
 .gnu.attributes
                0x00000000000001e0       0x10 kernel/vfs/ext2/ext2_inode_operations.o
 .gnu.attributes
                0x00000000000001f0       0x10 kernel/vfs/ext2/ext2_utils.o
 .gnu.attributes
                0x0000000000000200       0x10 kernel/vfs/ext2/ext2_dentry_operations.o
 .gnu.attributes
                0x0000000000000210       0x10 kernel/vfs/ext2/ext2_init.o
 .gnu.attributes
                0x0000000000000220       0x10 kernel/vfs/ext2/ext2_file_operations.o
 .gnu.attributes
                0x0000000000000230       0x10 kernel/vfs/ext2/ext2_address_space_operations.o
 .gnu.attributes
                0x0000000000000240       0x10 kernel/vfs/vfscache.o
 .gnu.attributes
                0x0000000000000250       0x10 kernel/vfs/mount.o
 .gnu.attributes
                0x0000000000000260       0x10 kernel/vfs/vfs_init.o
 .gnu.attributes
                0x0000000000000270       0x10 kernel/vfs/vfs_primitives/open.o
 .gnu.attributes
                0x0000000000000280       0x10 kernel/vfs/vfs_primitives/read_write.o
 .gnu.attributes
                0x0000000000000290       0x10 kernel/vfs/usr.o
 .gnu.attributes
                0x00000000000002a0       0x10 kernel/vfs/utils.o
 .gnu.attributes
                0x00000000000002b0       0x10 kernel/vfs/fat32/fat32_inode_operations.o
 .gnu.attributes
                0x00000000000002c0       0x10 kernel/vfs/fat32/fat32_dentry_operations.o
 .gnu.attributes
                0x00000000000002d0       0x10 kernel/vfs/fat32/fat32_utils.o
 .gnu.attributes
                0x00000000000002e0       0x10 kernel/vfs/fat32/fat32_init.o
 .gnu.attributes
                0x00000000000002f0       0x10 kernel/vfs/fat32/fat32_file_operations.o
 .gnu.attributes
                0x0000000000000300       0x10 kernel/vfs/fat32/fat32_address_space_operations.o
 .gnu.attributes
                0x0000000000000310       0x10 kernel/vfs/fat32/fat32_super_operations.o
 .gnu.attributes
                0x0000000000000320       0x10 kernel/mm/myslab.o
 .gnu.attributes
                0x0000000000000330       0x10 kernel/mm/mybuddy.o
 .gnu.attributes
                0x0000000000000340       0x10 kernel/mm/mybootmm.o
 .gnu.attributes
                0x0000000000000350       0x10 kernel/init.o
 .gnu.attributes
                0x0000000000000360       0x10 utils/assert.o
 .gnu.attributes
                0x0000000000000370       0x10 utils/log.o
 .gnu.attributes
                0x0000000000000380       0x10 utils/utils.o
 .gnu.attributes
                0x0000000000000390       0x10 usr/exec.o
 .gnu.attributes
                0x00000000000003a0       0x10 usr/myvi.o
 .gnu.attributes
                0x00000000000003b0       0x10 usr/ls.o
 .gnu.attributes
                0x00000000000003c0       0x10 usr/ps.o

.mdebug.abi32   0x0000000000000000        0x0
 .mdebug.abi32  0x0000000000000000        0x0 arch/mips32/arch.o
 .mdebug.abi32  0x0000000000000000        0x0 arch/mips32/page.o
 .mdebug.abi32  0x0000000000000000        0x0 arch/mips32/intr.o
 .mdebug.abi32  0x0000000000000000        0x0 arch/mips32/exc.o
 .mdebug.abi32  0x0000000000000000        0x0 kernel/time/time.o
 .mdebug.abi32  0x0000000000000000        0x0 kernel/syscall/syscall.o
 .mdebug.abi32  0x0000000000000000        0x0 kernel/syscall/syscall4.o
 .mdebug.abi32  0x0000000000000000        0x0 kernel/driver/ps2.o
 .mdebug.abi32  0x0000000000000000        0x0 kernel/driver/vga.o
 .mdebug.abi32  0x0000000000000000        0x0 kernel/driver/sd.o
 .mdebug.abi32  0x0000000000000000        0x0 kernel/vm/vm.o
 .mdebug.abi32  0x0000000000000000        0x0 kernel/fs/ext2/ext2.o
 .mdebug.abi32  0x0000000000000000        0x0 kernel/fs/ext2/usr.o
 .mdebug.abi32  0x0000000000000000        0x0 kernel/fs/debug.o
 .mdebug.abi32  0x0000000000000000        0x0 kernel/fs/ext2_utils.o
 .mdebug.abi32  0x0000000000000000        0x0 kernel/fs/fat/dir.o
 .mdebug.abi32  0x0000000000000000        0x0 kernel/fs/fat/fat.o
 .mdebug.abi32  0x0000000000000000        0x0 kernel/fs/fat/usr.o
 .mdebug.abi32  0x0000000000000000        0x0 kernel/fs/fat_utils.o
 .mdebug.abi32  0x0000000000000000        0x0 kernel/fs/utils.o
 .mdebug.abi32  0x0000000000000000        0x0 kernel/fs/fscache/fscache.o
 .mdebug.abi32  0x0000000000000000        0x0 kernel/pc/page.o
 .mdebug.abi32  0x0000000000000000        0x0 kernel/pc/pc.o
 .mdebug.abi32  0x0000000000000000        0x0 kernel/pc/pid.o
 .mdebug.abi32  0x0000000000000000        0x0 kernel/lock/lock.o
 .mdebug.abi32  0x0000000000000000        0x0 kernel/vfs/ext2/ext2_super_operations.o
 .mdebug.abi32  0x0000000000000000        0x0 kernel/vfs/ext2/ext2_inode_operations.o
 .mdebug.abi32  0x0000000000000000        0x0 kernel/vfs/ext2/ext2_utils.o
 .mdebug.abi32  0x0000000000000000        0x0 kernel/vfs/ext2/ext2_dentry_operations.o
 .mdebug.abi32  0x0000000000000000        0x0 kernel/vfs/ext2/ext2_init.o
 .mdebug.abi32  0x0000000000000000        0x0 kernel/vfs/ext2/ext2_file_operations.o
 .mdebug.abi32  0x0000000000000000        0x0 kernel/vfs/ext2/ext2_address_space_operations.o
 .mdebug.abi32  0x0000000000000000        0x0 kernel/vfs/vfscache.o
 .mdebug.abi32  0x0000000000000000        0x0 kernel/vfs/mount.o
 .mdebug.abi32  0x0000000000000000        0x0 kernel/vfs/vfs_init.o
 .mdebug.abi32  0x0000000000000000        0x0 kernel/vfs/vfs_primitives/open.o
 .mdebug.abi32  0x0000000000000000        0x0 kernel/vfs/vfs_primitives/read_write.o
 .mdebug.abi32  0x0000000000000000        0x0 kernel/vfs/usr.o
 .mdebug.abi32  0x0000000000000000        0x0 kernel/vfs/utils.o
 .mdebug.abi32  0x0000000000000000        0x0 kernel/vfs/fat32/fat32_inode_operations.o
 .mdebug.abi32  0x0000000000000000        0x0 kernel/vfs/fat32/fat32_dentry_operations.o
 .mdebug.abi32  0x0000000000000000        0x0 kernel/vfs/fat32/fat32_utils.o
 .mdebug.abi32  0x0000000000000000        0x0 kernel/vfs/fat32/fat32_init.o
 .mdebug.abi32  0x0000000000000000        0x0 kernel/vfs/fat32/fat32_file_operations.o
 .mdebug.abi32  0x0000000000000000        0x0 kernel/vfs/fat32/fat32_address_space_operations.o
 .mdebug.abi32  0x0000000000000000        0x0 kernel/vfs/fat32/fat32_super_operations.o
 .mdebug.abi32  0x0000000000000000        0x0 kernel/mm/myslab.o
 .mdebug.abi32  0x0000000000000000        0x0 kernel/mm/mybuddy.o
 .mdebug.abi32  0x0000000000000000        0x0 kernel/mm/mybootmm.o
 .mdebug.abi32  0x0000000000000000        0x0 kernel/init.o
 .mdebug.abi32  0x0000000000000000        0x0 utils/assert.o
 .mdebug.abi32  0x0000000000000000        0x0 utils/log.o
 .mdebug.abi32  0x0000000000000000        0x0 utils/utils.o
 .mdebug.abi32  0x0000000000000000        0x0 usr/exec.o
 .mdebug.abi32  0x0000000000000000        0x0 usr/myvi.o
 .mdebug.abi32  0x0000000000000000        0x0 usr/ls.o
 .mdebug.abi32  0x0000000000000000        0x0 usr/ps.o

.debug
 *(.debug)

.line
 *(.line)

.debug_srcinfo
 *(.debug_srcinfo)

.debug_sfnames
 *(.debug_sfnames)

.debug_aranges
 *(.debug_aranges)

.debug_pubnames
 *(.debug_pubnames)

.debug_info
 *(.debug_info)

.debug_abbrev
 *(.debug_abbrev)

.debug_line
 *(.debug_line)

.debug_frame
 *(.debug_frame)

.debug_str
 *(.debug_str)

.debug_loc
 *(.debug_loc)

.debug_macinfo
 *(.debug_macinfo)

.debug_weaknames
 *(.debug_weaknames)

.debug_funcnames
 *(.debug_funcnames)

.debug_typenames
 *(.debug_typenames)

.debug_varnames
 *(.debug_varnames)

/DISCARD/
 *(.reginfo)

.gptab.sdata
 *(.gptab.data)
 *(.gptab.sdata)

.gptab.sbss
 *(.gptab.bss)
 *(.gptab.sbss)

.pdr            0x0000000000000000     0x2ca0
 *(.pdr)
 .pdr           0x0000000000000000        0x0 arch/mips32/start.o
 .pdr           0x0000000000000000       0x20 arch/mips32/arch.o
 .pdr           0x0000000000000020       0x20 arch/mips32/page.o
 .pdr           0x0000000000000040       0xa0 arch/mips32/intr.o
 .pdr           0x00000000000000e0       0x80 arch/mips32/exc.o
 .pdr           0x0000000000000160       0x60 kernel/time/time.o
 .pdr           0x00000000000001c0       0x60 kernel/syscall/syscall.o
 .pdr           0x0000000000000220       0x20 kernel/syscall/syscall4.o
 .pdr           0x0000000000000240       0xe0 kernel/driver/ps2.o
 .pdr           0x0000000000000320      0x160 kernel/driver/vga.o
 .pdr           0x0000000000000480       0xa0 kernel/driver/sd.o
 .pdr           0x0000000000000520      0x1a0 kernel/vm/vm.o
 .pdr           0x00000000000006c0        0x0 kernel/vm/tlb.o
 .pdr           0x00000000000006c0       0x20 kernel/fs/ext2/ext2.o
 .pdr           0x00000000000006e0        0x0 kernel/fs/ext2/usr.o
 .pdr           0x00000000000006e0        0x0 kernel/fs/debug.o
 .pdr           0x00000000000006e0       0x60 kernel/fs/ext2_utils.o
 .pdr           0x0000000000000740       0x40 kernel/fs/fat/dir.o
 .pdr           0x0000000000000780      0x2a0 kernel/fs/fat/fat.o
 .pdr           0x0000000000000a20       0x80 kernel/fs/fat/usr.o
 .pdr           0x0000000000000aa0      0x100 kernel/fs/fat_utils.o
 .pdr           0x0000000000000ba0       0x20 kernel/fs/utils.o
 .pdr           0x0000000000000bc0      0x100 kernel/fs/fscache/fscache.o
 .pdr           0x0000000000000cc0       0x40 kernel/pc/page.o
 .pdr           0x0000000000000d00        0x0 kernel/pc/switch_ex.o
 .pdr           0x0000000000000d00        0x0 kernel/pc/enter_user_pc.o
 .pdr           0x0000000000000d00      0x500 kernel/pc/pc.o
 .pdr           0x0000000000001200       0x80 kernel/pc/pid.o
 .pdr           0x0000000000001280       0x80 kernel/lock/lock.o
 .pdr           0x0000000000001300       0xa0 kernel/vfs/ext2/ext2_super_operations.o
 .pdr           0x00000000000013a0      0x100 kernel/vfs/ext2/ext2_inode_operations.o
 .pdr           0x00000000000014a0       0x40 kernel/vfs/ext2/ext2_utils.o
 .pdr           0x00000000000014e0        0x0 kernel/vfs/ext2/ext2_dentry_operations.o
 .pdr           0x00000000000014e0       0x80 kernel/vfs/ext2/ext2_init.o
 .pdr           0x0000000000001560       0x80 kernel/vfs/ext2/ext2_file_operations.o
 .pdr           0x00000000000015e0       0x60 kernel/vfs/ext2/ext2_address_space_operations.o
 .pdr           0x0000000000001640      0x2c0 kernel/vfs/vfscache.o
 .pdr           0x0000000000001900       0x60 kernel/vfs/mount.o
 .pdr           0x0000000000001960       0x40 kernel/vfs/vfs_init.o
 .pdr           0x00000000000019a0      0x1a0 kernel/vfs/vfs_primitives/open.o
 .pdr           0x0000000000001b40      0x100 kernel/vfs/vfs_primitives/read_write.o
 .pdr           0x0000000000001c40       0xc0 kernel/vfs/usr.o
 .pdr           0x0000000000001d00      0x140 kernel/vfs/utils.o
 .pdr           0x0000000000001e40       0xa0 kernel/vfs/fat32/fat32_inode_operations.o
 .pdr           0x0000000000001ee0        0x0 kernel/vfs/fat32/fat32_dentry_operations.o
 .pdr           0x0000000000001ee0       0x40 kernel/vfs/fat32/fat32_utils.o
 .pdr           0x0000000000001f20       0x80 kernel/vfs/fat32/fat32_init.o
 .pdr           0x0000000000001fa0       0x80 kernel/vfs/fat32/fat32_file_operations.o
 .pdr           0x0000000000002020       0x60 kernel/vfs/fat32/fat32_address_space_operations.o
 .pdr           0x0000000000002080       0xa0 kernel/vfs/fat32/fat32_super_operations.o
 .pdr           0x0000000000002120      0x240 kernel/mm/myslab.o
 .pdr           0x0000000000002360      0x1a0 kernel/mm/mybuddy.o
 .pdr           0x0000000000002500      0x140 kernel/mm/mybootmm.o
 .pdr           0x0000000000002640       0x60 kernel/init.o
 .pdr           0x00000000000026a0       0x20 utils/assert.o
 .pdr           0x00000000000026c0       0xa0 utils/log.o
 .pdr           0x0000000000002760      0x140 utils/utils.o
 .pdr           0x00000000000028a0       0x20 usr/exec.o
 .pdr           0x00000000000028c0      0x280 usr/myvi.o
 .pdr           0x0000000000002b40       0x80 usr/ls.o
 .pdr           0x0000000000002bc0       0xe0 usr/ps.o
LOAD arch/mips32/start.o
LOAD arch/mips32/arch.o
LOAD arch/mips32/page.o
LOAD arch/mips32/intr.o
LOAD arch/mips32/exc.o
LOAD kernel/time/time.o
LOAD kernel/syscall/syscall.o
LOAD kernel/syscall/syscall4.o
LOAD kernel/driver/ps2.o
LOAD kernel/driver/vga.o
LOAD kernel/driver/sd.o
LOAD kernel/vm/vm.o
LOAD kernel/vm/tlb.o
LOAD kernel/fs/ext2/ext2.o
LOAD kernel/fs/ext2/usr.o
LOAD kernel/fs/debug.o
LOAD kernel/fs/ext2_utils.o
LOAD kernel/fs/fat/dir.o
LOAD kernel/fs/fat/fat.o
LOAD kernel/fs/fat/usr.o
LOAD kernel/fs/fat_utils.o
LOAD kernel/fs/utils.o
LOAD kernel/fs/fscache/fscache.o
LOAD kernel/pc/page.o
LOAD kernel/pc/switch_ex.o
LOAD kernel/pc/enter_user_pc.o
LOAD kernel/pc/pc.o
LOAD kernel/pc/pid.o
LOAD kernel/lock/lock.o
LOAD kernel/vfs/ext2/ext2_super_operations.o
LOAD kernel/vfs/ext2/ext2_inode_operations.o
LOAD kernel/vfs/ext2/ext2_utils.o
LOAD kernel/vfs/ext2/ext2_dentry_operations.o
LOAD kernel/vfs/ext2/ext2_init.o
LOAD kernel/vfs/ext2/ext2_file_operations.o
LOAD kernel/vfs/ext2/ext2_address_space_operations.o
LOAD kernel/vfs/vfscache.o
LOAD kernel/vfs/mount.o
LOAD kernel/vfs/vfs_init.o
LOAD kernel/vfs/vfs_primitives/open.o
LOAD kernel/vfs/vfs_primitives/read_write.o
LOAD kernel/vfs/usr.o
LOAD kernel/vfs/utils.o
LOAD kernel/vfs/fat32/fat32_inode_operations.o
LOAD kernel/vfs/fat32/fat32_dentry_operations.o
LOAD kernel/vfs/fat32/fat32_utils.o
LOAD kernel/vfs/fat32/fat32_init.o
LOAD kernel/vfs/fat32/fat32_file_operations.o
LOAD kernel/vfs/fat32/fat32_address_space_operations.o
LOAD kernel/vfs/fat32/fat32_super_operations.o
LOAD kernel/mm/myslab.o
LOAD kernel/mm/mybuddy.o
LOAD kernel/mm/mybootmm.o
LOAD kernel/init.o
LOAD utils/assert.o
LOAD utils/log.o
LOAD utils/utils.o
LOAD usr/exec.o
LOAD usr/myvi.o
LOAD usr/ls.o
LOAD usr/ps.o
OUTPUT(kernel.elf elf32-tradlittlemips)
